target datalayout = "e-m:e-p270:32:32-p271:32:32-p272:64:64-i64:64-i128:128-f80:128-n8:16:32:64-S128"
target triple = "x86_64-pc-linux-gnu"

%struct.MOVMuxCencContext = type { ptr, ptr, i64, i64, i32, i32, i16, i64, ptr, i64, ptr, i32, i32, ptr, %struct.CodedBitstreamFragment }
%struct.CodedBitstreamFragment = type { ptr, i64, i64, ptr, i32, i32, ptr }

; Function Attrs: nounwind uwtable
define internal i32 @auxiliary_info_alloc_size(ptr noundef %0, i32 noundef %1) #0 {
  %3 = alloca i32, align 4
  %4 = alloca ptr, align 8
  %5 = alloca i32, align 4
  %6 = alloca i64, align 8
  %7 = alloca i32, align 4
  store ptr %0, ptr %4, align 8, !tbaa !4
  store i32 %1, ptr %5, align 4, !tbaa !12
  call void @llvm.lifetime.start.p0(i64 8, ptr %6) #7
  %8 = load ptr, ptr %4, align 8, !tbaa !4
  %9 = getelementptr inbounds nuw %struct.MOVMuxCencContext, ptr %8, i32 0, i32 2
  %10 = load i64, ptr %9, align 8, !tbaa !25
  %11 = load i32, ptr %5, align 4, !tbaa !12
  %12 = sext i32 %11 to i64
  %13 = add i64 %10, %12
  %14 = load ptr, ptr %4, align 8, !tbaa !4
  %15 = getelementptr inbounds nuw %struct.MOVMuxCencContext, ptr %14, i32 0, i32 3
  %16 = load i64, ptr %15, align 8, !tbaa !116
  %17 = icmp ugt i64 %13, %16
  br i1 %17, label %18, label %54

18:                                               ; preds = %2
  %19 = load ptr, ptr %4, align 8, !tbaa !4
  %20 = getelementptr inbounds nuw %struct.MOVMuxCencContext, ptr %19, i32 0, i32 2
  %21 = load i64, ptr %20, align 8, !tbaa !25
  %22 = load i32, ptr %5, align 4, !tbaa !12
  %23 = sext i32 %22 to i64
  %24 = add i64 %21, %23
  %25 = load ptr, ptr %4, align 8, !tbaa !4
  %26 = getelementptr inbounds nuw %struct.MOVMuxCencContext, ptr %25, i32 0, i32 3
  %27 = load i64, ptr %26, align 8, !tbaa !116
  %28 = mul i64 %27, 2
  %29 = icmp ugt i64 %24, %28
  br i1 %29, label %30, label %37

30:                                               ; preds = %18
  %31 = load ptr, ptr %4, align 8, !tbaa !4
  %32 = getelementptr inbounds nuw %struct.MOVMuxCencContext, ptr %31, i32 0, i32 2
  %33 = load i64, ptr %32, align 8, !tbaa !25
  %34 = load i32, ptr %5, align 4, !tbaa !12
  %35 = sext i32 %34 to i64
  %36 = add i64 %33, %35
  br label %42

37:                                               ; preds = %18
  %38 = load ptr, ptr %4, align 8, !tbaa !4
  %39 = getelementptr inbounds nuw %struct.MOVMuxCencContext, ptr %38, i32 0, i32 3
  %40 = load i64, ptr %39, align 8, !tbaa !116
  %41 = mul i64 %40, 2
  br label %42

42:                                               ; preds = %37, %30
  %43 = phi i64 [ %36, %30 ], [ %41, %37 ]
  store i64 %43, ptr %6, align 8, !tbaa !35
  %44 = load ptr, ptr %4, align 8, !tbaa !4
  %45 = getelementptr inbounds nuw %struct.MOVMuxCencContext, ptr %44, i32 0, i32 1
  %46 = load i64, ptr %6, align 8, !tbaa !35
  %47 = call i32 @av_reallocp(ptr noundef %45, i64 noundef %46)
  %48 = icmp ne i32 %47, 0
  br i1 %48, label %49, label %50

49:                                               ; preds = %42
  store i32 -12, ptr %3, align 4
  store i32 1, ptr %7, align 4
  br label %55

50:                                               ; preds = %42
  %51 = load i64, ptr %6, align 8, !tbaa !35
  %52 = load ptr, ptr %4, align 8, !tbaa !4
  %53 = getelementptr inbounds nuw %struct.MOVMuxCencContext, ptr %52, i32 0, i32 3
  store i64 %51, ptr %53, align 8, !tbaa !116
  br label %54

54:                                               ; preds = %50, %2
  store i32 0, ptr %3, align 4
  store i32 1, ptr %7, align 4
  br label %55

55:                                               ; preds = %54, %49
  call void @llvm.lifetime.end.p0(i64 8, ptr %6) #7
  %56 = load i32, ptr %3, align 4
  ret i32 %56
}

; Function Attrs: nounwind uwtable
define internal i32 @auxiliary_info_write(ptr noundef %0, ptr noundef %1, i32 noundef %2) #0 {
  %4 = alloca i32, align 4
  %5 = alloca ptr, align 8
  %6 = alloca ptr, align 8
  %7 = alloca i32, align 4
  %8 = alloca i32, align 4
  %9 = alloca i32, align 4
  store ptr %0, ptr %5, align 8, !tbaa !4
  store ptr %1, ptr %6, align 8, !tbaa !10
  store i32 %2, ptr %7, align 4, !tbaa !12
  call void @llvm.lifetime.start.p0(i64 4, ptr %8) #7
  %10 = load ptr, ptr %5, align 8, !tbaa !4
  %11 = load i32, ptr %7, align 4, !tbaa !12
  %12 = call i32 @auxiliary_info_alloc_size(ptr noundef %10, i32 noundef %11)
  store i32 %12, ptr %8, align 4, !tbaa !12
  %13 = load i32, ptr %8, align 4, !tbaa !12
  %14 = icmp ne i32 %13, 0
  br i1 %14, label %15, label %17

15:                                               ; preds = %3
  %16 = load i32, ptr %8, align 4, !tbaa !12
  store i32 %16, ptr %4, align 4
  store i32 1, ptr %9, align 4
  br label %34

17:                                               ; preds = %3
  %18 = load ptr, ptr %5, align 8, !tbaa !4
  %19 = getelementptr inbounds nuw %struct.MOVMuxCencContext, ptr %18, i32 0, i32 1
  %20 = load ptr, ptr %19, align 8, !tbaa !29
  %21 = load ptr, ptr %5, align 8, !tbaa !4
  %22 = getelementptr inbounds nuw %struct.MOVMuxCencContext, ptr %21, i32 0, i32 2
  %23 = load i64, ptr %22, align 8, !tbaa !25
  %24 = getelementptr inbounds nuw i8, ptr %20, i64 %23
  %25 = load ptr, ptr %6, align 8, !tbaa !10
  %26 = load i32, ptr %7, align 4, !tbaa !12
  %27 = sext i32 %26 to i64
  call void @llvm.memcpy.p0.p0.i64(ptr align 1 %24, ptr align 1 %25, i64 %27, i1 false)
  %28 = load i32, ptr %7, align 4, !tbaa !12
  %29 = sext i32 %28 to i64
  %30 = load ptr, ptr %5, align 8, !tbaa !4
  %31 = getelementptr inbounds nuw %struct.MOVMuxCencContext, ptr %30, i32 0, i32 2
  %32 = load i64, ptr %31, align 8, !tbaa !25
  %33 = add i64 %32, %29
  store i64 %33, ptr %31, align 8, !tbaa !25
  store i32 0, ptr %4, align 4
  store i32 1, ptr %9, align 4
  br label %34

34:                                               ; preds = %17, %15
  call void @llvm.lifetime.end.p0(i64 4, ptr %8) #7
  %35 = load i32, ptr %4, align 4
  ret i32 %35
}

; Function Attrs: nounwind uwtable
define internal i32 @mov_cenc_start_packet(ptr noundef %0) #0 {
  %2 = alloca i32, align 4
  %3 = alloca ptr, align 8
  %4 = alloca i32, align 4
  %5 = alloca i32, align 4
  store ptr %0, ptr %3, align 8, !tbaa !4
  call void @llvm.lifetime.start.p0(i64 4, ptr %4) #7
  %6 = load ptr, ptr %3, align 8, !tbaa !4
  %7 = load ptr, ptr %3, align 8, !tbaa !4
  %8 = getelementptr inbounds nuw %struct.MOVMuxCencContext, ptr %7, i32 0, i32 0
  %9 = load ptr, ptr %8, align 8, !tbaa !14
  %10 = call ptr @av_aes_ctr_get_iv(ptr noundef %9)
  %11 = call i32 @auxiliary_info_write(ptr noundef %6, ptr noundef %10, i32 noundef 8)
  store i32 %11, ptr %4, align 4, !tbaa !12
  %12 = load i32, ptr %4, align 4, !tbaa !12
  %13 = icmp ne i32 %12, 0
  br i1 %13, label %14, label %16

14:                                               ; preds = %1
  %15 = load i32, ptr %4, align 4, !tbaa !12
  store i32 %15, ptr %2, align 4
  store i32 1, ptr %5, align 4
  br label %39

16:                                               ; preds = %1
  %17 = load ptr, ptr %3, align 8, !tbaa !4
  %18 = getelementptr inbounds nuw %struct.MOVMuxCencContext, ptr %17, i32 0, i32 5
  %19 = load i32, ptr %18, align 4, !tbaa !24
  %20 = icmp ne i32 %19, 0
  br i1 %20, label %22, label %21

21:                                               ; preds = %16
  store i32 0, ptr %2, align 4
  store i32 1, ptr %5, align 4
  br label %39

22:                                               ; preds = %16
  %23 = load ptr, ptr %3, align 8, !tbaa !4
  %24 = getelementptr inbounds nuw %struct.MOVMuxCencContext, ptr %23, i32 0, i32 2
  %25 = load i64, ptr %24, align 8, !tbaa !25
  %26 = load ptr, ptr %3, align 8, !tbaa !4
  %27 = getelementptr inbounds nuw %struct.MOVMuxCencContext, ptr %26, i32 0, i32 7
  store i64 %25, ptr %27, align 8, !tbaa !26
  %28 = load ptr, ptr %3, align 8, !tbaa !4
  %29 = getelementptr inbounds nuw %struct.MOVMuxCencContext, ptr %28, i32 0, i32 6
  store i16 0, ptr %29, align 8, !tbaa !27
  %30 = load ptr, ptr %3, align 8, !tbaa !4
  %31 = load ptr, ptr %3, align 8, !tbaa !4
  %32 = getelementptr inbounds nuw %struct.MOVMuxCencContext, ptr %31, i32 0, i32 6
  %33 = call i32 @auxiliary_info_write(ptr noundef %30, ptr noundef %32, i32 noundef 2)
  store i32 %33, ptr %4, align 4, !tbaa !12
  %34 = load i32, ptr %4, align 4, !tbaa !12
  %35 = icmp ne i32 %34, 0
  br i1 %35, label %36, label %38

36:                                               ; preds = %22
  %37 = load i32, ptr %4, align 4, !tbaa !12
  store i32 %37, ptr %2, align 4
  store i32 1, ptr %5, align 4
  br label %39

38:                                               ; preds = %22
  store i32 0, ptr %2, align 4
  store i32 1, ptr %5, align 4
  br label %39

39:                                               ; preds = %38, %36, %21, %14
  call void @llvm.lifetime.end.p0(i64 4, ptr %4) #7
  %40 = load i32, ptr %2, align 4
  ret i32 %40
}