; Function Attrs: nounwind uwtable
define internal fastcc range(i32 -12, 1) i32 @mov_cenc_start_packet(ptr noundef %0) unnamed_addr #0 {
  %2 = load ptr, ptr %0, align 8, !tbaa !24
  %3 = tail call ptr @av_aes_ctr_get_iv(ptr noundef %2) #5
  %4 = getelementptr inbounds nuw i8, ptr %0, i64 16
  %5 = load i64, ptr %4, align 8, !tbaa !19
  %6 = add i64 %5, 8
  %7 = getelementptr inbounds nuw i8, ptr %0, i64 24
  %8 = load i64, ptr %7, align 8, !tbaa !20
  %9 = icmp ugt i64 %6, %8
  br i1 %9, label %10, label %15

10:                                               ; preds = %1
  %11 = shl i64 %8, 1
  %..i.i = tail call i64 @llvm.umax.i64(i64 %6, i64 %11)
  %12 = getelementptr inbounds nuw i8, ptr %0, i64 8
  %13 = tail call i32 @av_reallocp(ptr noundef nonnull %12, i64 noundef %..i.i) #5
  %.not.i.i = icmp eq i32 %13, 0
  br i1 %.not.i.i, label %14, label %auxiliary_info_write.exit

14:                                               ; preds = %10
  store i64 %..i.i, ptr %7, align 8, !tbaa !20
  %.pre.i = load i64, ptr %4, align 8, !tbaa !19
  br label %15

15:                                               ; preds = %1, %14
  %16 = phi i64 [ %.pre.i, %14 ], [ %5, %1 ]
  %17 = getelementptr inbounds nuw i8, ptr %0, i64 8
  %18 = load ptr, ptr %17, align 8, !tbaa !21
  %19 = getelementptr inbounds nuw i8, ptr %18, i64 %16
  %20 = load i64, ptr %3, align 1
  store i64 %20, ptr %19, align 1
  %21 = load i64, ptr %4, align 8, !tbaa !19
  %22 = add i64 %21, 8
  store i64 %22, ptr %4, align 8, !tbaa !19
  %23 = getelementptr inbounds nuw i8, ptr %0, i64 36
  %24 = load i32, ptr %23, align 4, !tbaa !4
  %.not14 = icmp eq i32 %24, 0
  br i1 %.not14, label %auxiliary_info_write.exit, label %25

25:                                               ; preds = %15
  %26 = getelementptr inbounds nuw i8, ptr %0, i64 48
  store i64 %22, ptr %26, align 8, !tbaa !29
  %27 = getelementptr inbounds nuw i8, ptr %0, i64 40
  store i16 0, ptr %27, align 8, !tbaa !23
  %28 = add i64 %21, 10
  %29 = load i64, ptr %7, align 8, !tbaa !20
  %30 = icmp ugt i64 %28, %29
  br i1 %30, label %31, label %35

31:                                               ; preds = %25
  %32 = shl i64 %29, 1
  %..i.i17 = tail call i64 @llvm.umax.i64(i64 %28, i64 %32)
  %33 = tail call i32 @av_reallocp(ptr noundef nonnull %17, i64 noundef %..i.i17) #5
  %.not.i.i18 = icmp eq i32 %33, 0
  br i1 %.not.i.i18, label %34, label %auxiliary_info_write.exit

34:                                               ; preds = %31
  store i64 %..i.i17, ptr %7, align 8, !tbaa !20
  %.pre.i19 = load i64, ptr %4, align 8, !tbaa !19
  %.pre = load i16, ptr %27, align 1
  br label %35

35:                                               ; preds = %34, %25
  %36 = phi i16 [ %.pre, %34 ], [ 0, %25 ]
  %37 = phi i64 [ %.pre.i19, %34 ], [ %22, %25 ]
  %38 = load ptr, ptr %17, align 8, !tbaa !21
  %39 = getelementptr inbounds nuw i8, ptr %38, i64 %37
  store i16 %36, ptr %39, align 1
  %40 = load i64, ptr %4, align 8, !tbaa !19
  %41 = add i64 %40, 2
  store i64 %41, ptr %4, align 8, !tbaa !19
  br label %auxiliary_info_write.exit

auxiliary_info_write.exit:                        ; preds = %35, %31, %10, %15
  %.0 = phi i32 [ 0, %15 ], [ -12, %10 ], [ 0, %35 ], [ -12, %31 ]
  ret i32 %.0
}